; ModuleID = '32/1692.c'
source_filename = "32/1692.c"
target datalayout = "e-m:e-p270:32:32-p271:32:32-p272:64:64-i64:64-f80:128-n8:16:32:64-S128"
target triple = "x86_64-pc-linux-gnu"

@.str = private unnamed_addr constant [3 x i8] c"%d\00", align 1
@.str.1 = private unnamed_addr constant [3 x i8] c"%s\00", align 1
@.str.2 = private unnamed_addr constant [3 x i8] c"%c\00", align 1
@.str.3 = private unnamed_addr constant [2 x i8] c"\0A\00", align 1

; Function Attrs: noinline nounwind uwtable
define dso_local void @main() #0 {
  %1 = alloca [20 x [100 x i8]], align 16
  %2 = alloca [20 x [100 x i8]], align 16
  %3 = alloca i32, align 4
  %4 = alloca i32, align 4
  %5 = alloca i32, align 4
  %6 = alloca i32, align 4
  %7 = alloca i32, align 4
  %8 = alloca i32, align 4
  %9 = alloca i32, align 4
  %10 = call i32 (i8*, ...) @__isoc99_scanf(i8* getelementptr inbounds ([3 x i8], [3 x i8]* @.str, i64 0, i64 0), i32* %9)
  store i32 0, i32* %8, align 4
  br label %11

11:                                               ; preds = %26, %0
  %12 = load i32, i32* %8, align 4
  %13 = load i32, i32* %9, align 4
  %14 = icmp slt i32 %12, %13
  br i1 %14, label %15, label %29

15:                                               ; preds = %11
  %16 = load i32, i32* %8, align 4
  %17 = sext i32 %16 to i64
  %18 = getelementptr inbounds [20 x [100 x i8]], [20 x [100 x i8]]* %1, i64 0, i64 %17
  %19 = getelementptr inbounds [100 x i8], [100 x i8]* %18, i64 0, i64 0
  %20 = call i32 (i8*, ...) @__isoc99_scanf(i8* getelementptr inbounds ([3 x i8], [3 x i8]* @.str.1, i64 0, i64 0), i8* %19)
  %21 = load i32, i32* %8, align 4
  %22 = sext i32 %21 to i64
  %23 = getelementptr inbounds [20 x [100 x i8]], [20 x [100 x i8]]* %2, i64 0, i64 %22
  %24 = getelementptr inbounds [100 x i8], [100 x i8]* %23, i64 0, i64 0
  %25 = call i32 (i8*, ...) @__isoc99_scanf(i8* getelementptr inbounds ([3 x i8], [3 x i8]* @.str.1, i64 0, i64 0), i8* %24)
  br label %26

26:                                               ; preds = %15
  %27 = load i32, i32* %8, align 4
  %28 = add nsw i32 %27, 1
  store i32 %28, i32* %8, align 4
  br label %11

29:                                               ; preds = %11
  store i32 0, i32* %8, align 4
  br label %30

30:                                               ; preds = %191, %29
  %31 = load i32, i32* %8, align 4
  %32 = load i32, i32* %9, align 4
  %33 = icmp slt i32 %31, %32
  br i1 %33, label %34, label %194

34:                                               ; preds = %30
  %35 = load i32, i32* %8, align 4
  %36 = sext i32 %35 to i64
  %37 = getelementptr inbounds [20 x [100 x i8]], [20 x [100 x i8]]* %1, i64 0, i64 %36
  %38 = getelementptr inbounds [100 x i8], [100 x i8]* %37, i64 0, i64 0
  %39 = call i64 @strlen(i8* %38) #3
  %40 = trunc i64 %39 to i32
  store i32 %40, i32* %6, align 4
  %41 = load i32, i32* %8, align 4
  %42 = sext i32 %41 to i64
  %43 = getelementptr inbounds [20 x [100 x i8]], [20 x [100 x i8]]* %2, i64 0, i64 %42
  %44 = getelementptr inbounds [100 x i8], [100 x i8]* %43, i64 0, i64 0
  %45 = call i64 @strlen(i8* %44) #3
  %46 = trunc i64 %45 to i32
  store i32 %46, i32* %7, align 4
  %47 = load i32, i32* %6, align 4
  %48 = sub nsw i32 %47, 1
  store i32 %48, i32* %3, align 4
  %49 = load i32, i32* %7, align 4
  %50 = sub nsw i32 %49, 1
  store i32 %50, i32* %4, align 4
  br label %51

51:                                               ; preds = %142, %34
  %52 = load i32, i32* %4, align 4
  %53 = icmp sge i32 %52, 0
  br i1 %53, label %54, label %147

54:                                               ; preds = %51
  %55 = load i32, i32* %8, align 4
  %56 = sext i32 %55 to i64
  %57 = getelementptr inbounds [20 x [100 x i8]], [20 x [100 x i8]]* %1, i64 0, i64 %56
  %58 = load i32, i32* %3, align 4
  %59 = sext i32 %58 to i64
  %60 = getelementptr inbounds [100 x i8], [100 x i8]* %57, i64 0, i64 %59
  %61 = load i8, i8* %60, align 1
  %62 = sext i8 %61 to i32
  %63 = load i32, i32* %8, align 4
  %64 = sext i32 %63 to i64
  %65 = getelementptr inbounds [20 x [100 x i8]], [20 x [100 x i8]]* %2, i64 0, i64 %64
  %66 = load i32, i32* %4, align 4
  %67 = sext i32 %66 to i64
  %68 = getelementptr inbounds [100 x i8], [100 x i8]* %65, i64 0, i64 %67
  %69 = load i8, i8* %68, align 1
  %70 = sext i8 %69 to i32
  %71 = icmp sge i32 %62, %70
  br i1 %71, label %72, label %97

72:                                               ; preds = %54
  %73 = load i32, i32* %8, align 4
  %74 = sext i32 %73 to i64
  %75 = getelementptr inbounds [20 x [100 x i8]], [20 x [100 x i8]]* %1, i64 0, i64 %74
  %76 = load i32, i32* %3, align 4
  %77 = sext i32 %76 to i64
  %78 = getelementptr inbounds [100 x i8], [100 x i8]* %75, i64 0, i64 %77
  %79 = load i8, i8* %78, align 1
  %80 = sext i8 %79 to i32
  %81 = load i32, i32* %8, align 4
  %82 = sext i32 %81 to i64
  %83 = getelementptr inbounds [20 x [100 x i8]], [20 x [100 x i8]]* %2, i64 0, i64 %82
  %84 = load i32, i32* %4, align 4
  %85 = sext i32 %84 to i64
  %86 = getelementptr inbounds [100 x i8], [100 x i8]* %83, i64 0, i64 %85
  %87 = load i8, i8* %86, align 1
  %88 = sext i8 %87 to i32
  %89 = sub nsw i32 %80, %88
  %90 = trunc i32 %89 to i8
  %91 = load i32, i32* %8, align 4
  %92 = sext i32 %91 to i64
  %93 = getelementptr inbounds [20 x [100 x i8]], [20 x [100 x i8]]* %1, i64 0, i64 %92
  %94 = load i32, i32* %3, align 4
  %95 = sext i32 %94 to i64
  %96 = getelementptr inbounds [100 x i8], [100 x i8]* %93, i64 0, i64 %95
  store i8 %90, i8* %96, align 1
  br label %141

97:                                               ; preds = %54
  %98 = load i32, i32* %8, align 4
  %99 = sext i32 %98 to i64
  %100 = getelementptr inbounds [20 x [100 x i8]], [20 x [100 x i8]]* %1, i64 0, i64 %99
  %101 = load i32, i32* %3, align 4
  %102 = sext i32 %101 to i64
  %103 = getelementptr inbounds [100 x i8], [100 x i8]* %100, i64 0, i64 %102
  %104 = load i8, i8* %103, align 1
  %105 = sext i8 %104 to i32
  %106 = add nsw i32 %105, 10
  %107 = load i32, i32* %8, align 4
  %108 = sext i32 %107 to i64
  %109 = getelementptr inbounds [20 x [100 x i8]], [20 x [100 x i8]]* %2, i64 0, i64 %108
  %110 = load i32, i32* %4, align 4
  %111 = sext i32 %110 to i64
  %112 = getelementptr inbounds [100 x i8], [100 x i8]* %109, i64 0, i64 %111
  %113 = load i8, i8* %112, align 1
  %114 = sext i8 %113 to i32
  %115 = sub nsw i32 %106, %114
  %116 = trunc i32 %115 to i8
  %117 = load i32, i32* %8, align 4
  %118 = sext i32 %117 to i64
  %119 = getelementptr inbounds [20 x [100 x i8]], [20 x [100 x i8]]* %1, i64 0, i64 %118
  %120 = load i32, i32* %3, align 4
  %121 = sext i32 %120 to i64
  %122 = getelementptr inbounds [100 x i8], [100 x i8]* %119, i64 0, i64 %121
  store i8 %116, i8* %122, align 1
  %123 = load i32, i32* %8, align 4
  %124 = sext i32 %123 to i64
  %125 = getelementptr inbounds [20 x [100 x i8]], [20 x [100 x i8]]* %1, i64 0, i64 %124
  %126 = load i32, i32* %3, align 4
  %127 = sub nsw i32 %126, 1
  %128 = sext i32 %127 to i64
  %129 = getelementptr inbounds [100 x i8], [100 x i8]* %125, i64 0, i64 %128
  %130 = load i8, i8* %129, align 1
  %131 = sext i8 %130 to i32
  %132 = sub nsw i32 %131, 1
  %133 = trunc i32 %132 to i8
  %134 = load i32, i32* %8, align 4
  %135 = sext i32 %134 to i64
  %136 = getelementptr inbounds [20 x [100 x i8]], [20 x [100 x i8]]* %1, i64 0, i64 %135
  %137 = load i32, i32* %3, align 4
  %138 = sub nsw i32 %137, 1
  %139 = sext i32 %138 to i64
  %140 = getelementptr inbounds [100 x i8], [100 x i8]* %136, i64 0, i64 %139
  store i8 %133, i8* %140, align 1
  br label %141

141:                                              ; preds = %97, %72
  br label %142

142:                                              ; preds = %141
  %143 = load i32, i32* %3, align 4
  %144 = add nsw i32 %143, -1
  store i32 %144, i32* %3, align 4
  %145 = load i32, i32* %4, align 4
  %146 = add nsw i32 %145, -1
  store i32 %146, i32* %4, align 4
  br label %51

147:                                              ; preds = %51
  store i32 0, i32* %5, align 4
  br label %148

148:                                              ; preds = %164, %147
  %149 = load i32, i32* %5, align 4
  %150 = load i32, i32* %6, align 4
  %151 = load i32, i32* %7, align 4
  %152 = sub nsw i32 %150, %151
  %153 = icmp slt i32 %149, %152
  br i1 %153, label %154, label %167

154:                                              ; preds = %148
  %155 = load i32, i32* %8, align 4
  %156 = sext i32 %155 to i64
  %157 = getelementptr inbounds [20 x [100 x i8]], [20 x [100 x i8]]* %1, i64 0, i64 %156
  %158 = load i32, i32* %5, align 4
  %159 = sext i32 %158 to i64
  %160 = getelementptr inbounds [100 x i8], [100 x i8]* %157, i64 0, i64 %159
  %161 = load i8, i8* %160, align 1
  %162 = sext i8 %161 to i32
  %163 = call i32 (i8*, ...) @printf(i8* getelementptr inbounds ([3 x i8], [3 x i8]* @.str.2, i64 0, i64 0), i32 %162)
  br label %164

164:                                              ; preds = %154
  %165 = load i32, i32* %5, align 4
  %166 = add nsw i32 %165, 1
  store i32 %166, i32* %5, align 4
  br label %148

167:                                              ; preds = %148
  %168 = load i32, i32* %6, align 4
  %169 = load i32, i32* %7, align 4
  %170 = sub nsw i32 %168, %169
  store i32 %170, i32* %5, align 4
  br label %171

171:                                              ; preds = %186, %167
  %172 = load i32, i32* %5, align 4
  %173 = load i32, i32* %6, align 4
  %174 = icmp slt i32 %172, %173
  br i1 %174, label %175, label %189

175:                                              ; preds = %171
  %176 = load i32, i32* %8, align 4
  %177 = sext i32 %176 to i64
  %178 = getelementptr inbounds [20 x [100 x i8]], [20 x [100 x i8]]* %1, i64 0, i64 %177
  %179 = load i32, i32* %5, align 4
  %180 = sext i32 %179 to i64
  %181 = getelementptr inbounds [100 x i8], [100 x i8]* %178, i64 0, i64 %180
  %182 = load i8, i8* %181, align 1
  %183 = sext i8 %182 to i32
  %184 = add nsw i32 %183, 48
  %185 = call i32 (i8*, ...) @printf(i8* getelementptr inbounds ([3 x i8], [3 x i8]* @.str.2, i64 0, i64 0), i32 %184)
  br label %186

186:                                              ; preds = %175
  %187 = load i32, i32* %5, align 4
  %188 = add nsw i32 %187, 1
  store i32 %188, i32* %5, align 4
  br label %171

189:                                              ; preds = %171
  %190 = call i32 (i8*, ...) @printf(i8* getelementptr inbounds ([2 x i8], [2 x i8]* @.str.3, i64 0, i64 0))
  br label %191

191:                                              ; preds = %189
  %192 = load i32, i32* %8, align 4
  %193 = add nsw i32 %192, 1
  store i32 %193, i32* %8, align 4
  br label %30

194:                                              ; preds = %30
  ret void
}

declare dso_local i32 @__isoc99_scanf(i8*, ...) #1

; Function Attrs: nounwind readonly
declare dso_local i64 @strlen(i8*) #2

declare dso_local i32 @printf(i8*, ...) #1


!llvm.module.flags = !{!0}
!llvm.ident = !{!1}

!0 = !{i32 1, !"wchar_size", i32 4}
!1 = !{!"clang version 10.0.0-4ubuntu1 "}
